; Function Attrs: nounwind uwtable
define internal fastcc i32 @smtp_perform_upgrade_tls(ptr noundef %0) unnamed_addr #0 {
  %2 = alloca i8, align 1
  %3 = getelementptr inbounds nuw i8, ptr %0, i64 24
  %4 = load ptr, ptr %3, align 8, !tbaa !90
  call void @llvm.lifetime.start.p0(i64 1, ptr nonnull %2) #9
  store i8 0, ptr %2, align 1, !tbaa !79
  %5 = tail call zeroext i1 @Curl_conn_is_ssl(ptr noundef %4, i32 noundef 0) #9
  br i1 %5, label %8, label %6

6:                                                ; preds = %1
  %7 = tail call i32 @Curl_ssl_cfilter_add(ptr noundef nonnull %0, ptr noundef %4, i32 noundef 0) #9
  %.not = icmp eq i32 %7, 0
  br i1 %.not, label %8, label %smtp_perform_ehlo.exit

8:                                                ; preds = %6, %1
  %9 = call i32 @Curl_conn_connect(ptr noundef nonnull %0, i32 noundef 0, i1 noundef zeroext false, ptr noundef nonnull %2) #9
  %.not16 = icmp eq i32 %9, 0
  br i1 %.not16, label %10, label %smtp_perform_ehlo.exit

10:                                               ; preds = %8
  %11 = load i8, ptr %2, align 1, !tbaa !79, !range !108, !noundef !109
  %12 = getelementptr inbounds nuw i8, ptr %4, i64 1296
  %13 = load i8, ptr %12, align 8
  %14 = and i8 %13, -2
  %15 = or disjoint i8 %14, %11
  store i8 %15, ptr %12, align 8
  %16 = getelementptr inbounds nuw i8, ptr %4, i64 1280
  %17 = load i32, ptr %16, align 8, !tbaa !103
  %.not17 = icmp eq i32 %17, 5
  br i1 %.not17, label %40, label %18

18:                                               ; preds = %10
  %19 = load ptr, ptr %3, align 8, !tbaa !90
  %20 = getelementptr inbounds nuw i8, ptr %19, i64 1280
  %21 = load i32, ptr %20, align 8, !tbaa !103
  %.not20 = icmp eq i32 %21, 5
  br i1 %.not20, label %smtp_state.exit, label %22

22:                                               ; preds = %18
  %23 = getelementptr inbounds nuw i8, ptr %0, i64 2658
  %24 = load i64, ptr %23, align 2
  %25 = and i64 %24, 2147483648
  %.not.i = icmp eq i64 %25, 0
  br i1 %.not.i, label %smtp_state.exit, label %26

26:                                               ; preds = %22
  %27 = getelementptr inbounds nuw i8, ptr %0, i64 4864
  %28 = load ptr, ptr %27, align 8, !tbaa !8
  %.not17.i = icmp eq ptr %28, null
  br i1 %.not17.i, label %35, label %29

29:                                               ; preds = %26
  %30 = getelementptr inbounds nuw i8, ptr %28, i64 8
  %31 = load i32, ptr %30, align 8, !tbaa !77
  %32 = icmp sgt i32 %31, 0
  %33 = load i32, ptr getelementptr inbounds nuw (i8, ptr @Curl_trc_feat_smtp, i64 8), align 8
  %34 = icmp sgt i32 %33, 0
  %or.cond.i = select i1 %32, i1 %34, i1 false
  br i1 %or.cond.i, label %36, label %smtp_state.exit

35:                                               ; preds = %26
  %.old.i = load i32, ptr getelementptr inbounds nuw (i8, ptr @Curl_trc_feat_smtp, i64 8), align 8, !tbaa !77
  %.old1.i = icmp sgt i32 %.old.i, 0
  br i1 %.old1.i, label %36, label %smtp_state.exit

36:                                               ; preds = %35, %29
  %37 = zext i32 %21 to i64
  %38 = getelementptr inbounds nuw [13 x ptr], ptr @smtp_state.names, i64 0, i64 %37
  %39 = load ptr, ptr %38, align 8, !tbaa !81
  call void (ptr, ptr, ...) @Curl_trc_smtp(ptr noundef nonnull %0, ptr noundef nonnull @.str.48, ptr noundef %39, ptr noundef nonnull @.str.41) #9
  br label %smtp_state.exit

smtp_state.exit:                                  ; preds = %18, %22, %29, %35, %36
  store i32 5, ptr %20, align 8, !tbaa !103
  %.pre = load i8, ptr %12, align 8
  br label %40

40:                                               ; preds = %smtp_state.exit, %10
  %41 = phi i8 [ %.pre, %smtp_state.exit ], [ %15, %10 ]
  %42 = and i8 %41, 1
  %.not18 = icmp eq i8 %42, 0
  br i1 %.not18, label %smtp_perform_ehlo.exit, label %43

43:                                               ; preds = %40
  %44 = getelementptr inbounds nuw i8, ptr %4, i64 960
  store ptr @Curl_handler_smtps, ptr %44, align 8, !tbaa !140
  %45 = getelementptr inbounds nuw i8, ptr %4, i64 952
  %46 = load i64, ptr %45, align 8
  %47 = or i64 %46, 134217728
  store i64 %47, ptr %45, align 8
  %48 = load ptr, ptr %3, align 8, !tbaa !90
  %49 = getelementptr inbounds nuw i8, ptr %48, i64 1088
  %50 = getelementptr inbounds nuw i8, ptr %48, i64 1272
  store i16 0, ptr %50, align 8, !tbaa !132
  %51 = getelementptr inbounds nuw i8, ptr %48, i64 1276
  store i16 0, ptr %51, align 4, !tbaa !127
  %52 = getelementptr inbounds nuw i8, ptr %48, i64 1296
  %53 = load i8, ptr %52, align 8
  %54 = and i8 %53, -19
  store i8 %54, ptr %52, align 8
  %55 = getelementptr inbounds nuw i8, ptr %48, i64 1288
  %56 = load ptr, ptr %55, align 8, !tbaa !128
  %57 = call i32 (ptr, ptr, ptr, ...) @Curl_pp_sendf(ptr noundef nonnull %0, ptr noundef nonnull %49, ptr noundef nonnull @.str.2, ptr noundef %56) #9
  %.not.i19 = icmp eq i32 %57, 0
  br i1 %.not.i19, label %58, label %smtp_perform_ehlo.exit

58:                                               ; preds = %43
  %59 = load ptr, ptr %3, align 8, !tbaa !90
  %60 = getelementptr inbounds nuw i8, ptr %59, i64 1280
  %61 = load i32, ptr %60, align 8, !tbaa !103
  %.not11.i = icmp eq i32 %61, 2
  br i1 %.not11.i, label %smtp_state.exit.i, label %62

62:                                               ; preds = %58
  %63 = getelementptr inbounds nuw i8, ptr %0, i64 2658
  %64 = load i64, ptr %63, align 2
  %65 = and i64 %64, 2147483648
  %.not.i.i = icmp eq i64 %65, 0
  br i1 %.not.i.i, label %smtp_state.exit.i, label %66

66:                                               ; preds = %62
  %67 = getelementptr inbounds nuw i8, ptr %0, i64 4864
  %68 = load ptr, ptr %67, align 8, !tbaa !8
  %.not17.i.i = icmp eq ptr %68, null
  br i1 %.not17.i.i, label %75, label %69

69:                                               ; preds = %66
  %70 = getelementptr inbounds nuw i8, ptr %68, i64 8
  %71 = load i32, ptr %70, align 8, !tbaa !77
  %72 = icmp sgt i32 %71, 0
  %73 = load i32, ptr getelementptr inbounds nuw (i8, ptr @Curl_trc_feat_smtp, i64 8), align 8
  %74 = icmp sgt i32 %73, 0
  %or.cond.i.i = select i1 %72, i1 %74, i1 false
  br i1 %or.cond.i.i, label %76, label %smtp_state.exit.i

75:                                               ; preds = %66
  %.old.i.i = load i32, ptr getelementptr inbounds nuw (i8, ptr @Curl_trc_feat_smtp, i64 8), align 8, !tbaa !77
  %.old1.i.i = icmp sgt i32 %.old.i.i, 0
  br i1 %.old1.i.i, label %76, label %smtp_state.exit.i

76:                                               ; preds = %75, %69
  %77 = zext i32 %61 to i64
  %78 = getelementptr inbounds nuw [13 x ptr], ptr @smtp_state.names, i64 0, i64 %77
  %79 = load ptr, ptr %78, align 8, !tbaa !81
  call void (ptr, ptr, ...) @Curl_trc_smtp(ptr noundef nonnull %0, ptr noundef nonnull @.str.48, ptr noundef %79, ptr noundef nonnull @.str.39) #9
  br label %smtp_state.exit.i

smtp_state.exit.i:                                ; preds = %76, %75, %69, %62, %58
  store i32 2, ptr %60, align 8, !tbaa !103
  br label %smtp_perform_ehlo.exit

smtp_perform_ehlo.exit:                           ; preds = %smtp_state.exit.i, %43, %8, %40, %6
  %.0 = phi i32 [ %9, %8 ], [ 0, %40 ], [ %7, %6 ], [ %57, %43 ], [ 0, %smtp_state.exit.i ]
  call void @llvm.lifetime.end.p0(i64 1, ptr nonnull %2) #9
  ret i32 %.0
}